target datalayout = "e-m:e-p270:32:32-p271:32:32-p272:64:64-i64:64-i128:128-f80:128-n8:16:32:64-S128"
target triple = "x86_64-pc-linux-gnu"

%struct.RIPEMD160state_st = type { [5 x i32], i32, i32, [64 x i8], i32 }

; Function Attrs: nounwind uwtable
define hidden i32 @RIPEMD160_Final(ptr noundef %0, ptr noundef %1) #0 {
  %3 = alloca ptr, align 8
  %4 = alloca ptr, align 8
  %5 = alloca i64, align 8
  %6 = alloca ptr, align 8
  %7 = alloca i64, align 8
  store ptr %0, ptr %3, align 8, !tbaa !14
  store ptr %1, ptr %4, align 8, !tbaa !6
  call void @llvm.lifetime.start.p0(i64 8, ptr %5) #4
  %8 = load ptr, ptr %4, align 8, !tbaa !6
  %9 = getelementptr inbounds nuw %struct.RIPEMD160state_st, ptr %8, i32 0, i32 4
  %10 = load i32, ptr %9, align 4, !tbaa !21
  %11 = zext i32 %10 to i64
  store i64 %11, ptr %5, align 8, !tbaa !12
  %12 = load ptr, ptr %4, align 8, !tbaa !6
  %13 = getelementptr inbounds nuw %struct.RIPEMD160state_st, ptr %12, i32 0, i32 3
  %14 = load i64, ptr %5, align 8, !tbaa !12
  %15 = getelementptr inbounds nuw [64 x i8], ptr %13, i64 0, i64 %14
  store i8 -128, ptr %15, align 1, !tbaa !24
  %16 = load i64, ptr %5, align 8, !tbaa !12
  %17 = add i64 %16, 1
  store i64 %17, ptr %5, align 8, !tbaa !12
  %18 = load i64, ptr %5, align 8, !tbaa !12
  %19 = icmp ugt i64 %18, 56
  br i1 %19, label %20, label %34

20:                                               ; preds = %2
  %21 = load ptr, ptr %4, align 8, !tbaa !6
  %22 = getelementptr inbounds nuw %struct.RIPEMD160state_st, ptr %21, i32 0, i32 3
  %23 = getelementptr inbounds [64 x i8], ptr %22, i64 0, i64 0
  %24 = load i64, ptr %5, align 8, !tbaa !12
  %25 = getelementptr inbounds nuw i8, ptr %23, i64 %24
  %26 = load i64, ptr %5, align 8, !tbaa !12
  %27 = sub i64 64, %26
  call void @llvm.memset.p0.i64(ptr align 1 %25, i8 0, i64 %27, i1 false)
  store i64 0, ptr %5, align 8, !tbaa !12
  %28 = load ptr, ptr %4, align 8, !tbaa !6
  %29 = getelementptr inbounds nuw %struct.RIPEMD160state_st, ptr %28, i32 0, i32 0
  %30 = getelementptr inbounds [5 x i32], ptr %29, i64 0, i64 0
  %31 = load ptr, ptr %4, align 8, !tbaa !6
  %32 = getelementptr inbounds nuw %struct.RIPEMD160state_st, ptr %31, i32 0, i32 3
  %33 = getelementptr inbounds [64 x i8], ptr %32, i64 0, i64 0
  call void @ripemd160_block_data_order(ptr noundef %30, ptr noundef %33, i64 noundef 1)
  br label %34

34:                                               ; preds = %20, %2
  %35 = load ptr, ptr %4, align 8, !tbaa !6
  %36 = getelementptr inbounds nuw %struct.RIPEMD160state_st, ptr %35, i32 0, i32 3
  %37 = getelementptr inbounds [64 x i8], ptr %36, i64 0, i64 0
  %38 = load i64, ptr %5, align 8, !tbaa !12
  %39 = getelementptr inbounds nuw i8, ptr %37, i64 %38
  %40 = load i64, ptr %5, align 8, !tbaa !12
  %41 = sub i64 56, %40
  call void @llvm.memset.p0.i64(ptr align 1 %39, i8 0, i64 %41, i1 false)
  call void @llvm.lifetime.start.p0(i64 8, ptr %6) #4
  %42 = load ptr, ptr %4, align 8, !tbaa !6
  %43 = getelementptr inbounds nuw %struct.RIPEMD160state_st, ptr %42, i32 0, i32 3
  %44 = getelementptr inbounds [64 x i8], ptr %43, i64 0, i64 0
  %45 = getelementptr inbounds i8, ptr %44, i64 64
  %46 = getelementptr inbounds i8, ptr %45, i64 -8
  store ptr %46, ptr %6, align 8, !tbaa !14
  %47 = load ptr, ptr %4, align 8, !tbaa !6
  %48 = getelementptr inbounds nuw %struct.RIPEMD160state_st, ptr %47, i32 0, i32 1
  %49 = load i32, ptr %48, align 4, !tbaa !16
  %50 = and i32 %49, 255
  %51 = trunc i32 %50 to i8
  %52 = load ptr, ptr %6, align 8, !tbaa !14
  %53 = getelementptr inbounds nuw i8, ptr %52, i32 1
  store ptr %53, ptr %6, align 8, !tbaa !14
  store i8 %51, ptr %52, align 1, !tbaa !24
  %54 = load ptr, ptr %4, align 8, !tbaa !6
  %55 = getelementptr inbounds nuw %struct.RIPEMD160state_st, ptr %54, i32 0, i32 1
  %56 = load i32, ptr %55, align 4, !tbaa !16
  %57 = lshr i32 %56, 8
  %58 = and i32 %57, 255
  %59 = trunc i32 %58 to i8
  %60 = load ptr, ptr %6, align 8, !tbaa !14
  %61 = getelementptr inbounds nuw i8, ptr %60, i32 1
  store ptr %61, ptr %6, align 8, !tbaa !14
  store i8 %59, ptr %60, align 1, !tbaa !24
  %62 = load ptr, ptr %4, align 8, !tbaa !6
  %63 = getelementptr inbounds nuw %struct.RIPEMD160state_st, ptr %62, i32 0, i32 1
  %64 = load i32, ptr %63, align 4, !tbaa !16
  %65 = lshr i32 %64, 16
  %66 = and i32 %65, 255
  %67 = trunc i32 %66 to i8
  %68 = load ptr, ptr %6, align 8, !tbaa !14
  %69 = getelementptr inbounds nuw i8, ptr %68, i32 1
  store ptr %69, ptr %6, align 8, !tbaa !14
  store i8 %67, ptr %68, align 1, !tbaa !24
  %70 = load ptr, ptr %4, align 8, !tbaa !6
  %71 = getelementptr inbounds nuw %struct.RIPEMD160state_st, ptr %70, i32 0, i32 1
  %72 = load i32, ptr %71, align 4, !tbaa !16
  %73 = lshr i32 %72, 24
  %74 = and i32 %73, 255
  %75 = trunc i32 %74 to i8
  %76 = load ptr, ptr %6, align 8, !tbaa !14
  %77 = getelementptr inbounds nuw i8, ptr %76, i32 1
  store ptr %77, ptr %6, align 8, !tbaa !14
  store i8 %75, ptr %76, align 1, !tbaa !24
  %78 = load ptr, ptr %4, align 8, !tbaa !6
  %79 = getelementptr inbounds nuw %struct.RIPEMD160state_st, ptr %78, i32 0, i32 2
  %80 = load i32, ptr %79, align 4, !tbaa !20
  %81 = and i32 %80, 255
  %82 = trunc i32 %81 to i8
  %83 = load ptr, ptr %6, align 8, !tbaa !14
  %84 = getelementptr inbounds nuw i8, ptr %83, i32 1
  store ptr %84, ptr %6, align 8, !tbaa !14
  store i8 %82, ptr %83, align 1, !tbaa !24
  %85 = load ptr, ptr %4, align 8, !tbaa !6
  %86 = getelementptr inbounds nuw %struct.RIPEMD160state_st, ptr %85, i32 0, i32 2
  %87 = load i32, ptr %86, align 4, !tbaa !20
  %88 = lshr i32 %87, 8
  %89 = and i32 %88, 255
  %90 = trunc i32 %89 to i8
  %91 = load ptr, ptr %6, align 8, !tbaa !14
  %92 = getelementptr inbounds nuw i8, ptr %91, i32 1
  store ptr %92, ptr %6, align 8, !tbaa !14
  store i8 %90, ptr %91, align 1, !tbaa !24
  %93 = load ptr, ptr %4, align 8, !tbaa !6
  %94 = getelementptr inbounds nuw %struct.RIPEMD160state_st, ptr %93, i32 0, i32 2
  %95 = load i32, ptr %94, align 4, !tbaa !20
  %96 = lshr i32 %95, 16
  %97 = and i32 %96, 255
  %98 = trunc i32 %97 to i8
  %99 = load ptr, ptr %6, align 8, !tbaa !14
  %100 = getelementptr inbounds nuw i8, ptr %99, i32 1
  store ptr %100, ptr %6, align 8, !tbaa !14
  store i8 %98, ptr %99, align 1, !tbaa !24
  %101 = load ptr, ptr %4, align 8, !tbaa !6
  %102 = getelementptr inbounds nuw %struct.RIPEMD160state_st, ptr %101, i32 0, i32 2
  %103 = load i32, ptr %102, align 4, !tbaa !20
  %104 = lshr i32 %103, 24
  %105 = and i32 %104, 255
  %106 = trunc i32 %105 to i8
  %107 = load ptr, ptr %6, align 8, !tbaa !14
  %108 = getelementptr inbounds nuw i8, ptr %107, i32 1
  store ptr %108, ptr %6, align 8, !tbaa !14
  store i8 %106, ptr %107, align 1, !tbaa !24
  %109 = load ptr, ptr %4, align 8, !tbaa !6
  %110 = getelementptr inbounds nuw %struct.RIPEMD160state_st, ptr %109, i32 0, i32 0
  %111 = getelementptr inbounds [5 x i32], ptr %110, i64 0, i64 0
  %112 = load ptr, ptr %4, align 8, !tbaa !6
  %113 = getelementptr inbounds nuw %struct.RIPEMD160state_st, ptr %112, i32 0, i32 3
  %114 = getelementptr inbounds [64 x i8], ptr %113, i64 0, i64 0
  call void @ripemd160_block_data_order(ptr noundef %111, ptr noundef %114, i64 noundef 1)
  %115 = load ptr, ptr %4, align 8, !tbaa !6
  %116 = getelementptr inbounds nuw %struct.RIPEMD160state_st, ptr %115, i32 0, i32 4
  store i32 0, ptr %116, align 4, !tbaa !21
  %117 = load ptr, ptr %4, align 8, !tbaa !6
  %118 = getelementptr inbounds nuw %struct.RIPEMD160state_st, ptr %117, i32 0, i32 3
  %119 = getelementptr inbounds [64 x i8], ptr %118, i64 0, i64 0
  call void @llvm.memset.p0.i64(ptr align 4 %119, i8 0, i64 64, i1 false)
  br label %120

120:                                              ; preds = %34
  call void @llvm.lifetime.start.p0(i64 8, ptr %7) #4
  %121 = load ptr, ptr %4, align 8, !tbaa !6
  %122 = getelementptr inbounds nuw %struct.RIPEMD160state_st, ptr %121, i32 0, i32 0
  %123 = getelementptr inbounds [5 x i32], ptr %122, i64 0, i64 0
  %124 = load i32, ptr %123, align 4, !tbaa !19
  %125 = zext i32 %124 to i64
  store i64 %125, ptr %7, align 8, !tbaa !12
  %126 = load i64, ptr %7, align 8, !tbaa !12
  %127 = and i64 %126, 255
  %128 = trunc i64 %127 to i8
  %129 = load ptr, ptr %3, align 8, !tbaa !14
  %130 = getelementptr inbounds nuw i8, ptr %129, i32 1
  store ptr %130, ptr %3, align 8, !tbaa !14
  store i8 %128, ptr %129, align 1, !tbaa !24
  %131 = load i64, ptr %7, align 8, !tbaa !12
  %132 = lshr i64 %131, 8
  %133 = and i64 %132, 255
  %134 = trunc i64 %133 to i8
  %135 = load ptr, ptr %3, align 8, !tbaa !14
  %136 = getelementptr inbounds nuw i8, ptr %135, i32 1
  store ptr %136, ptr %3, align 8, !tbaa !14
  store i8 %134, ptr %135, align 1, !tbaa !24
  %137 = load i64, ptr %7, align 8, !tbaa !12
  %138 = lshr i64 %137, 16
  %139 = and i64 %138, 255
  %140 = trunc i64 %139 to i8
  %141 = load ptr, ptr %3, align 8, !tbaa !14
  %142 = getelementptr inbounds nuw i8, ptr %141, i32 1
  store ptr %142, ptr %3, align 8, !tbaa !14
  store i8 %140, ptr %141, align 1, !tbaa !24
  %143 = load i64, ptr %7, align 8, !tbaa !12
  %144 = lshr i64 %143, 24
  %145 = and i64 %144, 255
  %146 = trunc i64 %145 to i8
  %147 = load ptr, ptr %3, align 8, !tbaa !14
  %148 = getelementptr inbounds nuw i8, ptr %147, i32 1
  store ptr %148, ptr %3, align 8, !tbaa !14
  store i8 %146, ptr %147, align 1, !tbaa !24
  %149 = load ptr, ptr %4, align 8, !tbaa !6
  %150 = getelementptr inbounds nuw %struct.RIPEMD160state_st, ptr %149, i32 0, i32 0
  %151 = getelementptr inbounds [5 x i32], ptr %150, i64 0, i64 1
  %152 = load i32, ptr %151, align 4, !tbaa !19
  %153 = zext i32 %152 to i64
  store i64 %153, ptr %7, align 8, !tbaa !12
  %154 = load i64, ptr %7, align 8, !tbaa !12
  %155 = and i64 %154, 255
  %156 = trunc i64 %155 to i8
  %157 = load ptr, ptr %3, align 8, !tbaa !14
  %158 = getelementptr inbounds nuw i8, ptr %157, i32 1
  store ptr %158, ptr %3, align 8, !tbaa !14
  store i8 %156, ptr %157, align 1, !tbaa !24
  %159 = load i64, ptr %7, align 8, !tbaa !12
  %160 = lshr i64 %159, 8
  %161 = and i64 %160, 255
  %162 = trunc i64 %161 to i8
  %163 = load ptr, ptr %3, align 8, !tbaa !14
  %164 = getelementptr inbounds nuw i8, ptr %163, i32 1
  store ptr %164, ptr %3, align 8, !tbaa !14
  store i8 %162, ptr %163, align 1, !tbaa !24
  %165 = load i64, ptr %7, align 8, !tbaa !12
  %166 = lshr i64 %165, 16
  %167 = and i64 %166, 255
  %168 = trunc i64 %167 to i8
  %169 = load ptr, ptr %3, align 8, !tbaa !14
  %170 = getelementptr inbounds nuw i8, ptr %169, i32 1
  store ptr %170, ptr %3, align 8, !tbaa !14
  store i8 %168, ptr %169, align 1, !tbaa !24
  %171 = load i64, ptr %7, align 8, !tbaa !12
  %172 = lshr i64 %171, 24
  %173 = and i64 %172, 255
  %174 = trunc i64 %173 to i8
  %175 = load ptr, ptr %3, align 8, !tbaa !14
  %176 = getelementptr inbounds nuw i8, ptr %175, i32 1
  store ptr %176, ptr %3, align 8, !tbaa !14
  store i8 %174, ptr %175, align 1, !tbaa !24
  %177 = load ptr, ptr %4, align 8, !tbaa !6
  %178 = getelementptr inbounds nuw %struct.RIPEMD160state_st, ptr %177, i32 0, i32 0
  %179 = getelementptr inbounds [5 x i32], ptr %178, i64 0, i64 2
  %180 = load i32, ptr %179, align 4, !tbaa !19
  %181 = zext i32 %180 to i64
  store i64 %181, ptr %7, align 8, !tbaa !12
  %182 = load i64, ptr %7, align 8, !tbaa !12
  %183 = and i64 %182, 255
  %184 = trunc i64 %183 to i8
  %185 = load ptr, ptr %3, align 8, !tbaa !14
  %186 = getelementptr inbounds nuw i8, ptr %185, i32 1
  store ptr %186, ptr %3, align 8, !tbaa !14
  store i8 %184, ptr %185, align 1, !tbaa !24
  %187 = load i64, ptr %7, align 8, !tbaa !12
  %188 = lshr i64 %187, 8
  %189 = and i64 %188, 255
  %190 = trunc i64 %189 to i8
  %191 = load ptr, ptr %3, align 8, !tbaa !14
  %192 = getelementptr inbounds nuw i8, ptr %191, i32 1
  store ptr %192, ptr %3, align 8, !tbaa !14
  store i8 %190, ptr %191, align 1, !tbaa !24
  %193 = load i64, ptr %7, align 8, !tbaa !12
  %194 = lshr i64 %193, 16
  %195 = and i64 %194, 255
  %196 = trunc i64 %195 to i8
  %197 = load ptr, ptr %3, align 8, !tbaa !14
  %198 = getelementptr inbounds nuw i8, ptr %197, i32 1
  store ptr %198, ptr %3, align 8, !tbaa !14
  store i8 %196, ptr %197, align 1, !tbaa !24
  %199 = load i64, ptr %7, align 8, !tbaa !12
  %200 = lshr i64 %199, 24
  %201 = and i64 %200, 255
  %202 = trunc i64 %201 to i8
  %203 = load ptr, ptr %3, align 8, !tbaa !14
  %204 = getelementptr inbounds nuw i8, ptr %203, i32 1
  store ptr %204, ptr %3, align 8, !tbaa !14
  store i8 %202, ptr %203, align 1, !tbaa !24
  %205 = load ptr, ptr %4, align 8, !tbaa !6
  %206 = getelementptr inbounds nuw %struct.RIPEMD160state_st, ptr %205, i32 0, i32 0
  %207 = getelementptr inbounds [5 x i32], ptr %206, i64 0, i64 3
  %208 = load i32, ptr %207, align 4, !tbaa !19
  %209 = zext i32 %208 to i64
  store i64 %209, ptr %7, align 8, !tbaa !12
  %210 = load i64, ptr %7, align 8, !tbaa !12
  %211 = and i64 %210, 255
  %212 = trunc i64 %211 to i8
  %213 = load ptr, ptr %3, align 8, !tbaa !14
  %214 = getelementptr inbounds nuw i8, ptr %213, i32 1
  store ptr %214, ptr %3, align 8, !tbaa !14
  store i8 %212, ptr %213, align 1, !tbaa !24
  %215 = load i64, ptr %7, align 8, !tbaa !12
  %216 = lshr i64 %215, 8
  %217 = and i64 %216, 255
  %218 = trunc i64 %217 to i8
  %219 = load ptr, ptr %3, align 8, !tbaa !14
  %220 = getelementptr inbounds nuw i8, ptr %219, i32 1
  store ptr %220, ptr %3, align 8, !tbaa !14
  store i8 %218, ptr %219, align 1, !tbaa !24
  %221 = load i64, ptr %7, align 8, !tbaa !12
  %222 = lshr i64 %221, 16
  %223 = and i64 %222, 255
  %224 = trunc i64 %223 to i8
  %225 = load ptr, ptr %3, align 8, !tbaa !14
  %226 = getelementptr inbounds nuw i8, ptr %225, i32 1
  store ptr %226, ptr %3, align 8, !tbaa !14
  store i8 %224, ptr %225, align 1, !tbaa !24
  %227 = load i64, ptr %7, align 8, !tbaa !12
  %228 = lshr i64 %227, 24
  %229 = and i64 %228, 255
  %230 = trunc i64 %229 to i8
  %231 = load ptr, ptr %3, align 8, !tbaa !14
  %232 = getelementptr inbounds nuw i8, ptr %231, i32 1
  store ptr %232, ptr %3, align 8, !tbaa !14
  store i8 %230, ptr %231, align 1, !tbaa !24
  %233 = load ptr, ptr %4, align 8, !tbaa !6
  %234 = getelementptr inbounds nuw %struct.RIPEMD160state_st, ptr %233, i32 0, i32 0
  %235 = getelementptr inbounds [5 x i32], ptr %234, i64 0, i64 4
  %236 = load i32, ptr %235, align 4, !tbaa !19
  %237 = zext i32 %236 to i64
  store i64 %237, ptr %7, align 8, !tbaa !12
  %238 = load i64, ptr %7, align 8, !tbaa !12
  %239 = and i64 %238, 255
  %240 = trunc i64 %239 to i8
  %241 = load ptr, ptr %3, align 8, !tbaa !14
  %242 = getelementptr inbounds nuw i8, ptr %241, i32 1
  store ptr %242, ptr %3, align 8, !tbaa !14
  store i8 %240, ptr %241, align 1, !tbaa !24
  %243 = load i64, ptr %7, align 8, !tbaa !12
  %244 = lshr i64 %243, 8
  %245 = and i64 %244, 255
  %246 = trunc i64 %245 to i8
  %247 = load ptr, ptr %3, align 8, !tbaa !14
  %248 = getelementptr inbounds nuw i8, ptr %247, i32 1
  store ptr %248, ptr %3, align 8, !tbaa !14
  store i8 %246, ptr %247, align 1, !tbaa !24
  %249 = load i64, ptr %7, align 8, !tbaa !12
  %250 = lshr i64 %249, 16
  %251 = and i64 %250, 255
  %252 = trunc i64 %251 to i8
  %253 = load ptr, ptr %3, align 8, !tbaa !14
  %254 = getelementptr inbounds nuw i8, ptr %253, i32 1
  store ptr %254, ptr %3, align 8, !tbaa !14
  store i8 %252, ptr %253, align 1, !tbaa !24
  %255 = load i64, ptr %7, align 8, !tbaa !12
  %256 = lshr i64 %255, 24
  %257 = and i64 %256, 255
  %258 = trunc i64 %257 to i8
  %259 = load ptr, ptr %3, align 8, !tbaa !14
  %260 = getelementptr inbounds nuw i8, ptr %259, i32 1
  store ptr %260, ptr %3, align 8, !tbaa !14
  store i8 %258, ptr %259, align 1, !tbaa !24
  call void @llvm.lifetime.end.p0(i64 8, ptr %7) #4
  br label %261

261:                                              ; preds = %120
  br label %262

262:                                              ; preds = %261
  call void @llvm.lifetime.end.p0(i64 8, ptr %6) #4
  call void @llvm.lifetime.end.p0(i64 8, ptr %5) #4
  ret i32 1
}